; Function Attrs: mustprogress nounwind uwtable
define internal fastcc void @_ZN9grpc_core12_GLOBAL__N_122XdsServerConfigFetcher15ListenerWatcher23FilterChainMatchManager20CertificateProvidersD2Ev(ptr nocapture noundef nonnull readonly align 8 dereferenceable(24) %this) unnamed_addr #7 align 2 personality ptr @__gxx_personality_v0 {
entry:
  %xds = getelementptr inbounds i8, ptr %this, i64 16
  %0 = load ptr, ptr %xds, align 8
  %cmp.not.i = icmp eq ptr %0, null
  br i1 %cmp.not.i, label %_ZN9grpc_core13RefCountedPtrINS_22XdsCertificateProviderEED2Ev.exit, label %if.then.i

if.then.i:                                        ; preds = %entry
  %refs_.i.i = getelementptr inbounds i8, ptr %0, i64 8
  %1 = atomicrmw sub ptr %refs_.i.i, i64 1 acq_rel, align 8
  %cmp.i.i.i = icmp eq i64 %1, 1
  br i1 %cmp.i.i.i, label %if.then.i.i, label %_ZN9grpc_core13RefCountedPtrINS_22XdsCertificateProviderEED2Ev.exit

if.then.i.i:                                      ; preds = %if.then.i
  %vtable.i.i.i = load ptr, ptr %0, align 8
  %vfn.i.i.i = getelementptr inbounds i8, ptr %vtable.i.i.i, i64 8
  %2 = load ptr, ptr %vfn.i.i.i, align 8
  tail call void %2(ptr noundef nonnull align 8 dereferenceable(16) %0) #26
  br label %_ZN9grpc_core13RefCountedPtrINS_22XdsCertificateProviderEED2Ev.exit

_ZN9grpc_core13RefCountedPtrINS_22XdsCertificateProviderEED2Ev.exit: ; preds = %entry, %if.then.i, %if.then.i.i
  %instance = getelementptr inbounds i8, ptr %this, i64 8
  %3 = load ptr, ptr %instance, align 8
  %cmp.not.i1 = icmp eq ptr %3, null
  br i1 %cmp.not.i1, label %_ZN9grpc_core13RefCountedPtrI29grpc_tls_certificate_providerED2Ev.exit, label %if.then.i2

if.then.i2:                                       ; preds = %_ZN9grpc_core13RefCountedPtrINS_22XdsCertificateProviderEED2Ev.exit
  %refs_.i.i3 = getelementptr inbounds i8, ptr %3, i64 8
  %4 = atomicrmw sub ptr %refs_.i.i3, i64 1 acq_rel, align 8
  %cmp.i.i.i4 = icmp eq i64 %4, 1
  br i1 %cmp.i.i.i4, label %if.then.i.i5, label %_ZN9grpc_core13RefCountedPtrI29grpc_tls_certificate_providerED2Ev.exit

if.then.i.i5:                                     ; preds = %if.then.i2
  %vtable.i.i.i6 = load ptr, ptr %3, align 8
  %vfn.i.i.i7 = getelementptr inbounds i8, ptr %vtable.i.i.i6, i64 8
  %5 = load ptr, ptr %vfn.i.i.i7, align 8
  tail call void %5(ptr noundef nonnull align 8 dereferenceable(16) %3) #26
  br label %_ZN9grpc_core13RefCountedPtrI29grpc_tls_certificate_providerED2Ev.exit

_ZN9grpc_core13RefCountedPtrI29grpc_tls_certificate_providerED2Ev.exit: ; preds = %_ZN9grpc_core13RefCountedPtrINS_22XdsCertificateProviderEED2Ev.exit, %if.then.i2, %if.then.i.i5
  %6 = load ptr, ptr %this, align 8
  %cmp.not.i8 = icmp eq ptr %6, null
  br i1 %cmp.not.i8, label %_ZN9grpc_core13RefCountedPtrI29grpc_tls_certificate_providerED2Ev.exit15, label %if.then.i9

if.then.i9:                                       ; preds = %_ZN9grpc_core13RefCountedPtrI29grpc_tls_certificate_providerED2Ev.exit
  %refs_.i.i10 = getelementptr inbounds i8, ptr %6, i64 8
  %7 = atomicrmw sub ptr %refs_.i.i10, i64 1 acq_rel, align 8
  %cmp.i.i.i11 = icmp eq i64 %7, 1
  br i1 %cmp.i.i.i11, label %if.then.i.i12, label %_ZN9grpc_core13RefCountedPtrI29grpc_tls_certificate_providerED2Ev.exit15

if.then.i.i12:                                    ; preds = %if.then.i9
  %vtable.i.i.i13 = load ptr, ptr %6, align 8
  %vfn.i.i.i14 = getelementptr inbounds i8, ptr %vtable.i.i.i13, i64 8
  %8 = load ptr, ptr %vfn.i.i.i14, align 8
  tail call void %8(ptr noundef nonnull align 8 dereferenceable(16) %6) #26
  br label %_ZN9grpc_core13RefCountedPtrI29grpc_tls_certificate_providerED2Ev.exit15

_ZN9grpc_core13RefCountedPtrI29grpc_tls_certificate_providerED2Ev.exit15: ; preds = %_ZN9grpc_core13RefCountedPtrI29grpc_tls_certificate_providerED2Ev.exit, %if.then.i9, %if.then.i.i12
  ret void
}